; ModuleID = '36/5.c'
source_filename = "36/5.c"
target datalayout = "e-m:e-p270:32:32-p271:32:32-p272:64:64-i64:64-f80:128-n8:16:32:64-S128"
target triple = "x86_64-pc-linux-gnu"

@.str = private unnamed_addr constant [6 x i8] c"%s %s\00", align 1
@.str.1 = private unnamed_addr constant [3 x i8] c"NO\00", align 1
@.str.2 = private unnamed_addr constant [4 x i8] c"YES\00", align 1

; Function Attrs: noinline nounwind uwtable
define dso_local void @main() #0 {
  %1 = alloca [100 x i8], align 16
  %2 = alloca [100 x i8], align 16
  %3 = alloca i32, align 4
  %4 = alloca i32, align 4
  %5 = alloca i32, align 4
  %6 = alloca i32, align 4
  %7 = alloca [128 x i32], align 16
  %8 = alloca [128 x i32], align 16
  %9 = getelementptr inbounds [100 x i8], [100 x i8]* %1, i64 0, i64 0
  %10 = getelementptr inbounds [100 x i8], [100 x i8]* %2, i64 0, i64 0
  %11 = call i32 (i8*, ...) @__isoc99_scanf(i8* getelementptr inbounds ([6 x i8], [6 x i8]* @.str, i64 0, i64 0), i8* %9, i8* %10)
  store i32 0, i32* %5, align 4
  br label %12

12:                                               ; preds = %22, %0
  %13 = load i32, i32* %5, align 4
  %14 = icmp slt i32 %13, 128
  br i1 %14, label %15, label %25

15:                                               ; preds = %12
  %16 = load i32, i32* %5, align 4
  %17 = sext i32 %16 to i64
  %18 = getelementptr inbounds [128 x i32], [128 x i32]* %8, i64 0, i64 %17
  store i32 0, i32* %18, align 4
  %19 = load i32, i32* %5, align 4
  %20 = sext i32 %19 to i64
  %21 = getelementptr inbounds [128 x i32], [128 x i32]* %7, i64 0, i64 %20
  store i32 0, i32* %21, align 4
  br label %22

22:                                               ; preds = %15
  %23 = load i32, i32* %5, align 4
  %24 = add nsw i32 %23, 1
  store i32 %24, i32* %5, align 4
  br label %12

25:                                               ; preds = %12
  %26 = getelementptr inbounds [100 x i8], [100 x i8]* %1, i64 0, i64 0
  %27 = call i64 @strlen(i8* %26) #3
  %28 = trunc i64 %27 to i32
  store i32 %28, i32* %3, align 4
  %29 = getelementptr inbounds [100 x i8], [100 x i8]* %2, i64 0, i64 0
  %30 = call i64 @strlen(i8* %29) #3
  %31 = trunc i64 %30 to i32
  store i32 %31, i32* %4, align 4
  %32 = load i32, i32* %3, align 4
  %33 = load i32, i32* %4, align 4
  %34 = icmp ne i32 %32, %33
  br i1 %34, label %35, label %37

35:                                               ; preds = %25
  %36 = call i32 (i8*, ...) @printf(i8* getelementptr inbounds ([3 x i8], [3 x i8]* @.str.1, i64 0, i64 0))
  br label %104

37:                                               ; preds = %25
  store i32 0, i32* %5, align 4
  br label %38

38:                                               ; preds = %54, %37
  %39 = load i32, i32* %5, align 4
  %40 = load i32, i32* %3, align 4
  %41 = sub nsw i32 %40, 1
  %42 = icmp slt i32 %39, %41
  br i1 %42, label %43, label %57

43:                                               ; preds = %38
  %44 = load i32, i32* %5, align 4
  %45 = sext i32 %44 to i64
  %46 = getelementptr inbounds [100 x i8], [100 x i8]* %1, i64 0, i64 %45
  %47 = load i8, i8* %46, align 1
  %48 = sext i8 %47 to i32
  store i32 %48, i32* %6, align 4
  %49 = load i32, i32* %5, align 4
  %50 = sext i32 %49 to i64
  %51 = getelementptr inbounds [128 x i32], [128 x i32]* %7, i64 0, i64 %50
  %52 = load i32, i32* %51, align 4
  %53 = add nsw i32 %52, 1
  store i32 %53, i32* %51, align 4
  br label %54

54:                                               ; preds = %43
  %55 = load i32, i32* %5, align 4
  %56 = add nsw i32 %55, 1
  store i32 %56, i32* %5, align 4
  br label %38

57:                                               ; preds = %38
  store i32 0, i32* %5, align 4
  br label %58

58:                                               ; preds = %74, %57
  %59 = load i32, i32* %5, align 4
  %60 = load i32, i32* %4, align 4
  %61 = sub nsw i32 %60, 1
  %62 = icmp slt i32 %59, %61
  br i1 %62, label %63, label %77

63:                                               ; preds = %58
  %64 = load i32, i32* %5, align 4
  %65 = sext i32 %64 to i64
  %66 = getelementptr inbounds [100 x i8], [100 x i8]* %2, i64 0, i64 %65
  %67 = load i8, i8* %66, align 1
  %68 = sext i8 %67 to i32
  store i32 %68, i32* %6, align 4
  %69 = load i32, i32* %5, align 4
  %70 = sext i32 %69 to i64
  %71 = getelementptr inbounds [128 x i32], [128 x i32]* %8, i64 0, i64 %70
  %72 = load i32, i32* %71, align 4
  %73 = add nsw i32 %72, 1
  store i32 %73, i32* %71, align 4
  br label %74

74:                                               ; preds = %63
  %75 = load i32, i32* %5, align 4
  %76 = add nsw i32 %75, 1
  store i32 %76, i32* %5, align 4
  br label %58

77:                                               ; preds = %58
  store i32 0, i32* %5, align 4
  br label %78

78:                                               ; preds = %93, %77
  %79 = load i32, i32* %5, align 4
  %80 = icmp slt i32 %79, 128
  br i1 %80, label %81, label %96

81:                                               ; preds = %78
  %82 = load i32, i32* %5, align 4
  %83 = sext i32 %82 to i64
  %84 = getelementptr inbounds [128 x i32], [128 x i32]* %7, i64 0, i64 %83
  %85 = load i32, i32* %84, align 4
  %86 = load i32, i32* %5, align 4
  %87 = sext i32 %86 to i64
  %88 = getelementptr inbounds [128 x i32], [128 x i32]* %8, i64 0, i64 %87
  %89 = load i32, i32* %88, align 4
  %90 = icmp ne i32 %85, %89
  br i1 %90, label %91, label %92

91:                                               ; preds = %81
  br label %96

92:                                               ; preds = %81
  br label %93

93:                                               ; preds = %92
  %94 = load i32, i32* %5, align 4
  %95 = add nsw i32 %94, 1
  store i32 %95, i32* %5, align 4
  br label %78

96:                                               ; preds = %91, %78
  %97 = load i32, i32* %5, align 4
  %98 = icmp eq i32 %97, 128
  br i1 %98, label %99, label %101

99:                                               ; preds = %96
  %100 = call i32 (i8*, ...) @printf(i8* getelementptr inbounds ([4 x i8], [4 x i8]* @.str.2, i64 0, i64 0))
  br label %103

101:                                              ; preds = %96
  %102 = call i32 (i8*, ...) @printf(i8* getelementptr inbounds ([3 x i8], [3 x i8]* @.str.1, i64 0, i64 0))
  br label %103

103:                                              ; preds = %101, %99
  br label %104

104:                                              ; preds = %103, %35
  ret void
}

declare dso_local i32 @__isoc99_scanf(i8*, ...) #1

; Function Attrs: nounwind readonly
declare dso_local i64 @strlen(i8*) #2

declare dso_local i32 @printf(i8*, ...) #1


!llvm.module.flags = !{!0}
!llvm.ident = !{!1}

!0 = !{i32 1, !"wchar_size", i32 4}
!1 = !{!"clang version 10.0.0-4ubuntu1 "}
